(dp0
S'keys'
p1
(dp2
S'Shift'
p3
I01
sS'Alt'
p4
I00
sS'Ctrl'
p5
I01
sS'Extra'
p6
S'V'
p7
ssS'auto'
p8
I01
sS'scalingMode'
p9
S'fast'
p10
sS'ratioKeep'
p11
S'either'
p12
sS'width'
p13
V400
p14
sS'height'
p15
V400
p16
sS'isUpScalingDisabled'
p17
I01
s.